; Function Attrs: mustprogress uwtable
define dso_local void @_ZNK4Json5Value10getCommentB5cxx11ENS_16CommentPlacementE(ptr dead_on_unwind noalias writable sret(%"class.std::__cxx11::basic_string") align 8 %0, ptr nocapture noundef nonnull readonly align 8 dereferenceable(32) %1, i32 noundef %2) local_unnamed_addr #2 align 2 personality ptr @__gxx_personality_v0 {
  %4 = alloca %"class.std::allocator.6", align 1
  %5 = alloca %"class.std::allocator.6", align 1
  %6 = getelementptr inbounds i8, ptr %1, i64 16
  %7 = load ptr, ptr %6, align 8
  %.not.i = icmp eq ptr %7, null
  br i1 %.not.i, label %_ZNK4Json5Value10hasCommentENS_16CommentPlacementE.exit.thread, label %_ZNK4Json5Value10hasCommentENS_16CommentPlacementE.exit

_ZNK4Json5Value10hasCommentENS_16CommentPlacementE.exit: ; preds = %3
  %8 = zext i32 %2 to i64
  %9 = getelementptr inbounds %"struct.Json::Value::CommentInfo", ptr %7, i64 %8
  %10 = load ptr, ptr %9, align 8
  %.not = icmp eq ptr %10, null
  br i1 %.not, label %_ZNK4Json5Value10hasCommentENS_16CommentPlacementE.exit.thread, label %11

11:                                               ; preds = %_ZNK4Json5Value10hasCommentENS_16CommentPlacementE.exit
  call void @_ZNSaIcEC1Ev(ptr noundef nonnull align 1 dereferenceable(1) %4) #39
  invoke void @_ZNSt7__cxx1112basic_stringIcSt11char_traitsIcESaIcEEC1EPKcRKS3_(ptr noundef nonnull align 8 dereferenceable(32) %0, ptr noundef nonnull %10, ptr noundef nonnull align 1 dereferenceable(1) %4)
          to label %16 unwind label %12

12:                                               ; preds = %11
  %13 = landingpad { ptr, i32 }
          cleanup
  br label %17

_ZNK4Json5Value10hasCommentENS_16CommentPlacementE.exit.thread: ; preds = %3, %_ZNK4Json5Value10hasCommentENS_16CommentPlacementE.exit
  call void @_ZNSaIcEC1Ev(ptr noundef nonnull align 1 dereferenceable(1) %5) #39
  invoke void @_ZNSt7__cxx1112basic_stringIcSt11char_traitsIcESaIcEEC1EPKcRKS3_(ptr noundef nonnull align 8 dereferenceable(32) %0, ptr noundef nonnull @.str, ptr noundef nonnull align 1 dereferenceable(1) %5)
          to label %16 unwind label %14

14:                                               ; preds = %_ZNK4Json5Value10hasCommentENS_16CommentPlacementE.exit.thread
  %15 = landingpad { ptr, i32 }
          cleanup
  br label %17

16:                                               ; preds = %_ZNK4Json5Value10hasCommentENS_16CommentPlacementE.exit.thread, %11
  %.sink = phi ptr [ %4, %11 ], [ %5, %_ZNK4Json5Value10hasCommentENS_16CommentPlacementE.exit.thread ]
  call void @_ZNSaIcED1Ev(ptr noundef nonnull align 1 dereferenceable(1) %.sink) #39
  ret void

17:                                               ; preds = %14, %12
  %.sink6 = phi ptr [ %5, %14 ], [ %4, %12 ]
  %.pn = phi { ptr, i32 } [ %15, %14 ], [ %13, %12 ]
  call void @_ZNSaIcED1Ev(ptr noundef nonnull align 1 dereferenceable(1) %.sink6) #39
  resume { ptr, i32 } %.pn
}